target datalayout = "e-m:e-p270:32:32-p271:32:32-p272:64:64-i64:64-i128:128-f80:128-n8:16:32:64-S128"
target triple = "x86_64-pc-linux-gnu"

; Function Attrs: nounwind uwtable
define dso_local double @geohashGetLatDistance(double noundef %0, double noundef %1) #0 {
  %3 = alloca double, align 8
  %4 = alloca double, align 8
  store double %0, ptr %3, align 8, !tbaa !5
  store double %1, ptr %4, align 8, !tbaa !5
  %5 = load double, ptr %4, align 8, !tbaa !5
  %6 = call double @deg_rad(double noundef %5)
  %7 = load double, ptr %3, align 8, !tbaa !5
  %8 = call double @deg_rad(double noundef %7)
  %9 = fsub double %6, %8
  %10 = call double @llvm.fabs.f64(double %9)
  %11 = fmul double 0x41584F6F63E51090, %10
  ret double %11
}

; Function Attrs: inlinehint nounwind uwtable
define internal double @deg_rad(double noundef %0) #2 {
  %2 = alloca double, align 8
  store double %0, ptr %2, align 8, !tbaa !5
  %3 = load double, ptr %2, align 8, !tbaa !5
  %4 = fmul double %3, 0x3F91DF46A2529D39
  ret double %4
}

; Function Attrs: nounwind uwtable
define dso_local double @geohashGetDistance(double noundef %0, double noundef %1, double noundef %2, double noundef %3) #0 {
  %5 = alloca double, align 8
  %6 = alloca double, align 8
  %7 = alloca double, align 8
  %8 = alloca double, align 8
  %9 = alloca double, align 8
  %10 = alloca double, align 8
  %11 = alloca double, align 8
  %12 = alloca double, align 8
  %13 = alloca double, align 8
  %14 = alloca double, align 8
  %15 = alloca double, align 8
  %16 = alloca double, align 8
  %17 = alloca i32, align 4
  store double %0, ptr %6, align 8, !tbaa !5
  store double %1, ptr %7, align 8, !tbaa !5
  store double %2, ptr %8, align 8, !tbaa !5
  store double %3, ptr %9, align 8, !tbaa !5
  call void @llvm.lifetime.start.p0(i64 8, ptr %10) #7
  call void @llvm.lifetime.start.p0(i64 8, ptr %11) #7
  call void @llvm.lifetime.start.p0(i64 8, ptr %12) #7
  call void @llvm.lifetime.start.p0(i64 8, ptr %13) #7
  call void @llvm.lifetime.start.p0(i64 8, ptr %14) #7
  call void @llvm.lifetime.start.p0(i64 8, ptr %15) #7
  call void @llvm.lifetime.start.p0(i64 8, ptr %16) #7
  %18 = load double, ptr %6, align 8, !tbaa !5
  %19 = call double @deg_rad(double noundef %18)
  store double %19, ptr %11, align 8, !tbaa !5
  %20 = load double, ptr %8, align 8, !tbaa !5
  %21 = call double @deg_rad(double noundef %20)
  store double %21, ptr %13, align 8, !tbaa !5
  %22 = load double, ptr %13, align 8, !tbaa !5
  %23 = load double, ptr %11, align 8, !tbaa !5
  %24 = fsub double %22, %23
  %25 = fdiv double %24, 2.000000e+00
  %26 = call double @sin(double noundef %25) #7, !tbaa !9
  store double %26, ptr %15, align 8, !tbaa !5
  %27 = load double, ptr %15, align 8, !tbaa !5
  %28 = fcmp oeq double %27, 0.000000e+00
  br i1 %28, label %29, label %33

29:                                               ; preds = %4
  %30 = load double, ptr %7, align 8, !tbaa !5
  %31 = load double, ptr %9, align 8, !tbaa !5
  %32 = call double @geohashGetLatDistance(double noundef %30, double noundef %31)
  store double %32, ptr %5, align 8
  store i32 1, ptr %17, align 4
  br label %59

33:                                               ; preds = %4
  %34 = load double, ptr %7, align 8, !tbaa !5
  %35 = call double @deg_rad(double noundef %34)
  store double %35, ptr %10, align 8, !tbaa !5
  %36 = load double, ptr %9, align 8, !tbaa !5
  %37 = call double @deg_rad(double noundef %36)
  store double %37, ptr %12, align 8, !tbaa !5
  %38 = load double, ptr %12, align 8, !tbaa !5
  %39 = load double, ptr %10, align 8, !tbaa !5
  %40 = fsub double %38, %39
  %41 = fdiv double %40, 2.000000e+00
  %42 = call double @sin(double noundef %41) #7, !tbaa !9
  store double %42, ptr %14, align 8, !tbaa !5
  %43 = load double, ptr %14, align 8, !tbaa !5
  %44 = load double, ptr %14, align 8, !tbaa !5
  %45 = load double, ptr %10, align 8, !tbaa !5
  %46 = call double @cos(double noundef %45) #7, !tbaa !9
  %47 = load double, ptr %12, align 8, !tbaa !5
  %48 = call double @cos(double noundef %47) #7, !tbaa !9
  %49 = fmul double %46, %48
  %50 = load double, ptr %15, align 8, !tbaa !5
  %51 = fmul double %49, %50
  %52 = load double, ptr %15, align 8, !tbaa !5
  %53 = fmul double %51, %52
  %54 = call double @llvm.fmuladd.f64(double %43, double %44, double %53)
  store double %54, ptr %16, align 8, !tbaa !5
  %55 = load double, ptr %16, align 8, !tbaa !5
  %56 = call double @sqrt(double noundef %55) #7, !tbaa !9
  %57 = call double @asin(double noundef %56) #7, !tbaa !9
  %58 = fmul double 0x41684F6F63E51090, %57
  store double %58, ptr %5, align 8
  store i32 1, ptr %17, align 4
  br label %59

59:                                               ; preds = %33, %29
  call void @llvm.lifetime.end.p0(i64 8, ptr %16) #7
  call void @llvm.lifetime.end.p0(i64 8, ptr %15) #7
  call void @llvm.lifetime.end.p0(i64 8, ptr %14) #7
  call void @llvm.lifetime.end.p0(i64 8, ptr %13) #7
  call void @llvm.lifetime.end.p0(i64 8, ptr %12) #7
  call void @llvm.lifetime.end.p0(i64 8, ptr %11) #7
  call void @llvm.lifetime.end.p0(i64 8, ptr %10) #7
  %60 = load double, ptr %5, align 8
  ret double %60
}