; Function Attrs: mustprogress nofree nounwind willreturn memory(write) uwtable
define dso_local double @geohashGetDistance(double noundef %0, double noundef %1, double noundef %2, double noundef %3) local_unnamed_addr #9 {
  %5 = fmul double %0, 0x3F91DF46A2529D39
  %6 = fmul double %2, 0x3F91DF46A2529D39
  %7 = fsub double %6, %5
  %8 = fmul double %7, 5.000000e-01
  %9 = tail call double @sin(double noundef %8) #11, !tbaa !16
  %10 = fcmp oeq double %9, 0.000000e+00
  br i1 %10, label %11, label %17

11:                                               ; preds = %4
  %12 = fmul double %3, 0x3F91DF46A2529D39
  %13 = fmul double %1, 0x3F91DF46A2529D39
  %14 = fsub double %12, %13
  %15 = tail call double @llvm.fabs.f64(double %14)
  %16 = fmul double %15, 0x41584F6F63E51090
  br label %32

17:                                               ; preds = %4
  %18 = fmul double %1, 0x3F91DF46A2529D39
  %19 = fmul double %3, 0x3F91DF46A2529D39
  %20 = fsub double %19, %18
  %21 = fmul double %20, 5.000000e-01
  %22 = tail call double @sin(double noundef %21) #11, !tbaa !16
  %23 = tail call double @cos(double noundef %18) #11, !tbaa !16
  %24 = tail call double @cos(double noundef %19) #11, !tbaa !16
  %25 = fmul double %23, %24
  %26 = fmul double %9, %25
  %27 = fmul double %9, %26
  %28 = tail call double @llvm.fmuladd.f64(double %22, double %22, double %27)
  %29 = tail call double @sqrt(double noundef %28) #11, !tbaa !16
  %30 = tail call double @asin(double noundef %29) #11, !tbaa !16
  %31 = fmul double %30, 0x41684F6F63E51090
  br label %32

32:                                               ; preds = %17, %11
  %.0 = phi double [ %16, %11 ], [ %31, %17 ]
  ret double %.0
}